; Function Attrs: mustprogress nounwind uwtable
define internal noundef zeroext i1 @_ZNK12_GLOBAL__N_121ParsedAttrInfoCleanup20diagAppertainsToDeclERN5clang4SemaERKNS1_10ParsedAttrEPKNS1_4DeclE(ptr nocapture nonnull readnone align 8 %0, ptr noundef nonnull align 8 dereferenceable(17560) %1, ptr noundef nonnull align 8 dereferenceable(72) %2, ptr noundef %3) unnamed_addr #0 align 2 {
  %5 = alloca %"class.clang::SemaBase::SemaDiagnosticBuilder", align 8
  %6 = alloca i8, align 1
  %7 = getelementptr inbounds nuw i8, ptr %3, i64 28
  %8 = load i32, ptr %7, align 4
  %9 = and i32 %8, 127
  %10 = add nsw i32 %9, -44
  %11 = icmp ult i32 %10, -7
  %.not3.i = icmp eq ptr %3, null
  %.not.i = or i1 %.not3.i, %11
  br i1 %.not.i, label %_ZN12_GLOBAL__N_110isLocalVarEPKN5clang4DeclE.exit.thread, label %12

12:                                               ; preds = %4
  %13 = tail call noundef zeroext i1 @_ZNK5clang7VarDecl15hasLocalStorageEv(ptr noundef nonnull align 8 dereferenceable(100) %3)
  br i1 %13, label %_ZN12_GLOBAL__N_110isLocalVarEPKN5clang4DeclE.exit, label %_ZN12_GLOBAL__N_110isLocalVarEPKN5clang4DeclE.exit.thread

_ZN12_GLOBAL__N_110isLocalVarEPKN5clang4DeclE.exit: ; preds = %12
  %14 = load i32, ptr %7, align 4
  %15 = and i32 %14, 127
  %.not = icmp eq i32 %15, 40
  br i1 %.not, label %_ZN12_GLOBAL__N_110isLocalVarEPKN5clang4DeclE.exit.thread, label %26

_ZN12_GLOBAL__N_110isLocalVarEPKN5clang4DeclE.exit.thread: ; preds = %4, %12, %_ZN12_GLOBAL__N_110isLocalVarEPKN5clang4DeclE.exit
  %16 = getelementptr inbounds i8, ptr %1, i64 8
  %17 = getelementptr inbounds nuw i8, ptr %2, i64 16
  %.sroa.0.0.copyload.i.i = load i32, ptr %17, align 8
  call void @_ZN5clang8SemaBase4DiagENS_14SourceLocationEjb(ptr dead_on_unwind nonnull writable sret(%"class.clang::SemaBase::SemaDiagnosticBuilder") align 8 %5, ptr noundef nonnull align 8 dereferenceable(8) %16, i32 %.sroa.0.0.copyload.i.i, i32 noundef 6180, i1 noundef zeroext false) #18
  %18 = call noundef nonnull align 8 dereferenceable(96) ptr @_ZN5clanglsINS_10ParsedAttrEEERKNS_8SemaBase21SemaDiagnosticBuilderES5_RKT_(ptr noundef nonnull align 8 dereferenceable(96) %5, ptr noundef nonnull align 8 dereferenceable(72) %2)
  %19 = getelementptr inbounds nuw i8, ptr %2, i64 28
  %20 = load i32, ptr %19, align 4
  %21 = lshr i32 %20, 25
  %22 = trunc nuw nsw i32 %21 to i8
  %23 = and i8 %22, 1
  store i8 %23, ptr %6, align 1
  %24 = call noundef nonnull align 8 dereferenceable(96) ptr @_ZNK5clang8SemaBase21SemaDiagnosticBuilderlsIbvEERKS1_OT_(ptr noundef nonnull align 8 dereferenceable(96) %18, ptr noundef nonnull align 1 dereferenceable(1) %6)
  %25 = call noundef nonnull align 8 dereferenceable(96) ptr @_ZN5clanglsIA16_cEERKNS_8SemaBase21SemaDiagnosticBuilderES5_RKT_(ptr noundef nonnull align 8 dereferenceable(96) %24, ptr noundef nonnull align 1 dereferenceable(16) @.str.1361)
  call void @_ZN5clang8SemaBase21SemaDiagnosticBuilderD1Ev(ptr noundef nonnull align 8 dereferenceable(96) %5) #18
  br label %26

26:                                               ; preds = %_ZN12_GLOBAL__N_110isLocalVarEPKN5clang4DeclE.exit, %_ZN12_GLOBAL__N_110isLocalVarEPKN5clang4DeclE.exit.thread
  %.0.i8 = phi i1 [ true, %_ZN12_GLOBAL__N_110isLocalVarEPKN5clang4DeclE.exit ], [ false, %_ZN12_GLOBAL__N_110isLocalVarEPKN5clang4DeclE.exit.thread ]
  ret i1 %.0.i8
}